__text_start:
__start:
    0113 E5CF      LDI	R28,0x5F
    0114 E0D4      LDI	R29,4
    0115 BFCD      OUT	0x3D,R28
    0116 BFDE      OUT	0x3E,R29
    0117 51C0      SUBI	R28,0x10
    0118 40D0      SBCI	R29,0
    0119 EA0A      LDI	R16,0xAA
    011A 8308      STD	Y+0,R16
    011B 2400      CLR	R0
    011C E2EE      LDI	R30,0x2E
    011D E0F1      LDI	R31,1
    011E E011      LDI	R17,1
    011F 34E9      CPI	R30,0x49
    0120 07F1      CPC	R31,R17
    0121 F011      BEQ	0x0124
    0122 9201      ST	R0,Z+
    0123 CFFB      RJMP	0x011F
    0124 8300      STD	Z+0,R16
    0125 E5E7      LDI	R30,0x57
    0126 E0F1      LDI	R31,1
    0127 E6A0      LDI	R26,0x60
    0128 E0B0      LDI	R27,0
    0129 E012      LDI	R17,2
    012A 32E5      CPI	R30,0x25
    012B 07F1      CPC	R31,R17
    012C F021      BEQ	0x0131
    012D 95C8      LPM
    012E 9631      ADIW	R30,1
    012F 920D      ST	R0,X+
    0130 CFF9      RJMP	0x012A
    0131 D010      RCALL	_main
_exit:
    0132 CFFF      RJMP	_exit
FILE: Z:\yang-home-shanghai\smarthome\门禁系统资料\code\uart.c
(0001) #include<iom16v.h>
(0002) #include <macros.h>
(0003) 
(0004) #include "uart.h"
(0005) 
(0006) //uart0 init. for printf.
(0007) void uart0_init(void)
(0008) {
(0009)  UCSRB = 0x00;                //禁止UART发送和接收
_uart0_init:
    0133 2422      CLR	R2
    0134 B82A      OUT	0x0A,R2
(0010)  UCSRA = 0x02;				  //倍速
    0135 E082      LDI	R24,2
    0136 B98B      OUT	0x0B,R24
(0011)  UCSRC = 0x06;				  //8位数据
    0137 E086      LDI	R24,6
    0138 BD80      OUT	0x20,R24
(0012)  UBRRL = 0x67;				  //9600bps
    0139 E687      LDI	R24,0x67
    013A B989      OUT	0x09,R24
(0013)  UBRRH = 0x00;
    013B BC20      OUT	0x20,R2
(0014)  UCSRB = 0x18;
    013C E188      LDI	R24,0x18
    013D B98A      OUT	0x0A,R24
    013E 9508      RET
FILE: Z:\yang-home-shanghai\smarthome\门禁系统资料\code\init.c
(0001) #include<iom16v.h>
(0002) #include <macros.h>
(0003) 
(0004) void port_init(void)
(0005) {
(0006)  //PORTA = 0xff;
(0007)  //DDRA = 0x00;
(0008)  //PORTB = 0xff;
(0009)  DDRB = 0xff;
_port_init:
    013F EF8F      LDI	R24,0xFF
    0140 BB87      OUT	0x17,R24
    0141 9508      RET
_main:
    0142 9722      SBIW	R28,2
FILE: Z:\yang-home-shanghai\smarthome\门禁系统资料\code\main.c
(0001) #include <stdio.h>
(0002) #include <string.h>
(0003) #include <stdlib.h>
(0004) #include <string.h>
(0005) 
(0006) #include<iom16v.h>
(0007) #include <macros.h>
(0008) 
(0009) #include "init.h"
(0010) #include "uart.h"
(0011) #include "wg26.h"
(0012) #include "util.h"
(0013) #include "tips.h"
(0014) 
(0015) extern unsigned long id_code;
(0016) 
(0017) int main(void)
(0018) {
(0019)  port_init();
    0143 DFFB      RCALL	_port_init
(0020)  uart0_init();
    0144 DFEE      RCALL	_uart0_init
(0021)  init_interrupt();
    0145 D036      RCALL	_init_interrupt
(0022)  tips_port_init();
    0146 D08E      RCALL	_tips_port_init
(0023)  //uart0_send_string("uart send...\n");
(0024)  PORTB = 0xff;
    0147 EF8F      LDI	R24,0xFF
    0148 BB88      OUT	0x18,R24
    0149 C02D      RJMP	0x0177
(0025)  while(1)
(0026)  {
(0027)   //uart0_send_string("uart send testing...\n");
(0028)   //PORTB = 0xff;
(0029)   //SEI();
(0030)   
(0031)   delay_ms(500);
    014A EF04      LDI	R16,0xF4
    014B E011      LDI	R17,1
    014C D075      RCALL	_delay_ms
(0032)   if(id_code)
    014D E040      LDI	R20,0
    014E E050      LDI	R21,0
    014F E060      LDI	R22,0
    0150 E070      LDI	R23,0
    0151 940E04DA  CALL	0x4DA
    0153 940E0533  CALL	0x533
    0155 F0B1      BEQ	0x016C
(0033)   {
(0034)    //printf("sizeof(long)=%x", sizeof(long));
(0035)    id_code &= 0x01fffffe;
    0156 EF4E      LDI	R20,0xFE
    0157 EF5F      LDI	R21,0xFF
    0158 EF6F      LDI	R22,0xFF
    0159 E071      LDI	R23,1
    015A 2224      AND	R2,R20
    015B 2235      AND	R3,R21
    015C 2246      AND	R4,R22
    015D 2257      AND	R5,R23
    015E 940E04CB  CALL	0x4CB
(0036)    id_code >>= 1;
    0160 9456      LSR	R5
    0161 9447      ROR	R4
    0162 9437      ROR	R3
    0163 9427      ROR	R2
    0164 940E04CB  CALL	0x4CB
(0037)    printf("id_code=%d", id_code);
    0166 8248      STD	Y+0,R4
    0167 8259      STD	Y+1,R5
    0168 0191      MOVW	R18,R2
    0169 E600      LDI	R16,0x60
    016A E010      LDI	R17,0
    016B D33D      RCALL	_printf
(0038)   }
(0039)   
(0040)   if(id_code == 1392618)
    016C EE4A      LDI	R20,0xEA
    016D E35F      LDI	R21,0x3F
    016E E165      LDI	R22,0x15
    016F E070      LDI	R23,0
    0170 940E04DA  CALL	0x4DA
    0172 940E0533  CALL	0x533
    0174 F411      BNE	0x0177
(0041)   {
(0042)    PORTB = 0x0;
    0175 2422      CLR	R2
    0176 BA28      OUT	0x18,R2
    0177 CFD2      RJMP	0x014A
(0043)   }
(0044)  }
(0045)  return 0;
    0178 2700      CLR	R16
    0179 2711      CLR	R17
    017A 9622      ADIW	R28,2
    017B 9508      RET
FILE: Z:\yang-home-shanghai\smarthome\门禁系统资料\code\wg26.c
(0001) #include <stdio.h>
(0002) #include <stdlib.h>
(0003) #include <string.h>
(0004) 
(0005) #include<iom16v.h>
(0006) #include <macros.h>
(0007) 
(0008) #include "uart.h"
(0009) 
(0010) void init_interrupt(void)
(0011) {
(0012)  //pd2,pd3 input mode.
(0013)  DDRD &= 0xf3;
_init_interrupt:
    017C B381      IN	R24,0x11
    017D 7F83      ANDI	R24,0xF3
    017E BB81      OUT	0x11,R24
(0014)  //上拉。
(0015)  PORTD |= 0x0c;
    017F B382      IN	R24,0x12
    0180 608C      ORI	R24,0xC
    0181 BB82      OUT	0x12,R24
(0016)  //enable interrupt.
(0017)  SREG |= 0x80;
    0182 9478      BSET	7
(0018)  //int1 int0 enable.
(0019)  GICR |= 0xc0;
    0183 B78B      IN	R24,0x3B
    0184 6C80      ORI	R24,0xC0
    0185 BF8B      OUT	0x3B,R24
(0020)   //int1 int0 fall edge.
(0021)  MCUCR |= 0x0a;
    0186 B785      IN	R24,0x35
    0187 608A      ORI	R24,0xA
    0188 BF85      OUT	0x35,R24
(0022)  return;
    0189 9508      RET
_int1_isr:
    018A 940E052E  CALL	0x52E
    018C 928A      ST	R8,-Y
    018D 929A      ST	R9,-Y
    018E 93EA      ST	R30,-Y
    018F B62F      IN	R2,0x3F
    0190 922A      ST	R2,-Y
    0191 D22E      RCALL	push_gset2
    0192 940E04DA  CALL	0x4DA
(0023) }
(0024) 
(0025) unsigned long id_code = 0;
(0026) 
(0027) #pragma interrupt_handler int1_isr:3
(0028) void int1_isr(void)
(0029) {
(0030)  id_code <<= 1;
    0194 0C22      LSL	R2
    0195 1C33      ROL	R3
    0196 1C44      ROL	R4
    0197 1C55      ROL	R5
    0198 940E04CB  CALL	0x4CB
(0031)  id_code |= 1;
    019A E041      LDI	R20,1
    019B E050      LDI	R21,0
    019C E060      LDI	R22,0
    019D E070      LDI	R23,0
    019E 2A24      OR	R2,R20
    019F 2A35      OR	R3,R21
    01A0 2A46      OR	R4,R22
    01A1 2A57      OR	R5,R23
    01A2 940E04CB  CALL	0x4CB
    01A4 D20F      RCALL	pop_gset2
    01A5 9029      LD	R2,Y+
    01A6 BE2F      OUT	0x3F,R2
    01A7 91E9      LD	R30,Y+
    01A8 9099      LD	R9,Y+
    01A9 9089      LD	R8,Y+
    01AA 940E0529  CALL	0x529
    01AC 9518      RETI
_int0_isr:
    01AD 920A      ST	R0,-Y
    01AE 921A      ST	R1,-Y
    01AF 940E052E  CALL	0x52E
    01B1 B60F      IN	R0,0x3F
    01B2 920A      ST	R0,-Y
    01B3 940E04DA  CALL	0x4DA
(0032) }
(0033) 
(0034) #pragma interrupt_handler int0_isr:2
(0035) void int0_isr(void)
(0036) {
(0037)  id_code <<= 1;
    01B5 0C22      LSL	R2
    01B6 1C33      ROL	R3
    01B7 1C44      ROL	R4
    01B8 1C55      ROL	R5
    01B9 940E04CB  CALL	0x4CB
    01BB 9009      LD	R0,Y+
    01BC BE0F      OUT	0x3F,R0
    01BD 940E0529  CALL	0x529
    01BF 9019      LD	R1,Y+
    01C0 9009      LD	R0,Y+
    01C1 9518      RETI
_delay_ms:
  i                    --> R20
  j                    --> R22
  ms                   --> R16
    01C2 D1FD      RCALL	push_gset2
FILE: Z:\yang-home-shanghai\smarthome\门禁系统资料\code\util.c
(0001) #include <stdio.h>
(0002) #include <string.h>
(0003) #include <stdlib.h>
(0004) 
(0005) #include "util.h"
(0006) 
(0007) void delay_ms(int ms)
(0008) {
(0009)     int i,j;			
(0010)     for(i=0;i<ms;i++)
    01C3 2744      CLR	R20
    01C4 2755      CLR	R21
    01C5 C00A      RJMP	0x01D0
(0011)     {
(0012)        for(j=0;j<1140;j++)
    01C6 2766      CLR	R22
    01C7 2777      CLR	R23
    01C8 5F6F      SUBI	R22,0xFF
    01C9 4F7F      SBCI	R23,0xFF
    01CA 3764      CPI	R22,0x74
    01CB E0E4      LDI	R30,4
    01CC 077E      CPC	R23,R30
    01CD F3D4      BLT	0x01C8
    01CE 5F4F      SUBI	R20,0xFF
    01CF 4F5F      SBCI	R21,0xFF
    01D0 1740      CP	R20,R16
    01D1 0751      CPC	R21,R17
    01D2 F39C      BLT	0x01C6
    01D3 D1E0      RCALL	pop_gset2
    01D4 9508      RET
FILE: Z:\yang-home-shanghai\smarthome\门禁系统资料\code\tips.c
(0001) #include<iom16v.h>
(0002) #include <macros.h>
(0003) 
(0004) #include "tips.h"
(0005) #include "util.h"
(0006) 
(0007) #define BEEP_ON (PORTD&=0xef)
(0008) #define BEEP_OFF (PORTD|=0x10)
(0009) #define LED_ON (PORTD&=0xdf)
(0010) #define LED_OFF (PORTD|=0x20)
(0011) 
(0012) //pd4 beep,pd5 led.
(0013) void tips_port_init(void)
(0014) {
(0015)  //PIND4 & PIND5 OUTPUT AND pull-up resistors.
(0016)  PORTD |= 0x30;
_tips_port_init:
    01D5 B382      IN	R24,0x12
    01D6 6380      ORI	R24,0x30
    01D7 BB82      OUT	0x12,R24
(0017)  DDRD |= 0x30;
    01D8 B381      IN	R24,0x11
    01D9 6380      ORI	R24,0x30
    01DA BB81      OUT	0x11,R24
(0018)  return;
    01DB 9508      RET
(0019) }
(0020) 
(0021) //__------__ 6 pices.pice per 0.4 seconds.
(0022) void tips_ok(void)
(0023) {
(0024)  LED_ON;
_tips_ok:
    01DC B382      IN	R24,0x12
    01DD 7D8F      ANDI	R24,0xDF
    01DE BB82      OUT	0x12,R24
(0025)  BEEP_ON;
    01DF B382      IN	R24,0x12
    01E0 7E8F      ANDI	R24,0xEF
    01E1 BB82      OUT	0x12,R24
(0026)  //2.4 seconds.
(0027)  delay_ms(2400);
    01E2 E600      LDI	R16,0x60
    01E3 E019      LDI	R17,0x9
    01E4 DFDD      RCALL	_delay_ms
(0028)  LED_OFF;
    01E5 9A95      SBI	0x12,5
(0029)  BEEP_OFF;
    01E6 9A94      SBI	0x12,4
(0030)  return;
    01E7 9508      RET
    01E8 940E04E3  CALL	0x4E3
(0031) }
(0032) //_-_-___-_-_
(0033) void tips_err(void)
(0034) {
(0035)  BEEP_ON;
(0036)  delay_ms(400);
_tips_err:
    01EA DFD7      RCALL	_delay_ms
(0037)  BEEP_OFF;
    01EB 9A94      SBI	0x12,4
(0038)  delay_ms(400);
    01EC E900      LDI	R16,0x90
    01ED E011      LDI	R17,1
    01EE DFD3      RCALL	_delay_ms
    01EF 940E04E3  CALL	0x4E3
(0039)  BEEP_ON;
(0040)  delay_ms(400);
    01F1 DFD0      RCALL	_delay_ms
(0041)  BEEP_OFF;
    01F2 9A94      SBI	0x12,4
(0042)  
(0043)  delay_ms(800);
    01F3 E200      LDI	R16,0x20
    01F4 E013      LDI	R17,3
    01F5 DFCC      RCALL	_delay_ms
    01F6 940E04E3  CALL	0x4E3
(0044)  
(0045)  BEEP_ON;
(0046)  delay_ms(400);
    01F8 DFC9      RCALL	_delay_ms
(0047)  BEEP_OFF;
    01F9 9A94      SBI	0x12,4
(0048)  delay_ms(400);
    01FA E900      LDI	R16,0x90
    01FB E011      LDI	R17,1
    01FC DFC5      RCALL	_delay_ms
    01FD 940E04E3  CALL	0x4E3
(0049)  BEEP_ON;
(0050)  delay_ms(400);
    01FF DFC2      RCALL	_delay_ms
(0051)  BEEP_OFF;
    0200 9A94      SBI	0x12,4
(0052)  return;
    0201 9508      RET
(0053) }
(0054) //_----_-_-_
(0055) void tips_id_ok(void)
(0056) {
(0057)  BEEP_ON;
_tips_id_ok:
    0202 B382      IN	R24,0x12
    0203 7E8F      ANDI	R24,0xEF
    0204 BB82      OUT	0x12,R24
(0058)  delay_ms(800);
    0205 E200      LDI	R16,0x20
    0206 E013      LDI	R17,3
    0207 DFBA      RCALL	_delay_ms
(0059)  BEEP_OFF;
    0208 9A94      SBI	0x12,4
(0060)  delay_ms(800);
    0209 E200      LDI	R16,0x20
    020A E013      LDI	R17,3
    020B DFB6      RCALL	_delay_ms
    020C 940E04E3  CALL	0x4E3
(0061)   
(0062)  BEEP_ON;
(0063)  delay_ms(400);
    020E DFB3      RCALL	_delay_ms
(0064)  BEEP_OFF;
    020F 9A94      SBI	0x12,4
(0065)  delay_ms(400);
    0210 E900      LDI	R16,0x90
    0211 E011      LDI	R17,1
    0212 DFAF      RCALL	_delay_ms
    0213 940E04E3  CALL	0x4E3
(0066)  BEEP_ON;
(0067)  delay_ms(400);
    0215 DFAC      RCALL	_delay_ms
(0068)  BEEP_OFF;
    0216 9A94      SBI	0x12,4
(0069)  return;
    0217 9508      RET
FILE: Z:\yang-home-shanghai\smarthome\门禁系统资料\code\password.c
(0001) #include <stdio.h>
(0002) #include <stdlib.h>
(0003) 
(0004) #include<iom16v.h>
(0005) #include <macros.h>
(0006) 
(0007) #include "password.h"
(0008) 
(0009) int readPasswordItemNum(void)
(0010) {
(0011) 
(0012)  return 0;
_readPasswordItemNum:
    0218 2700      CLR	R16
    0219 2711      CLR	R17
    021A 9508      RET
_readPasswordItem:
  item                 --> Y+0
  index                --> R22
    021B D1A4      RCALL	push_gset2
    021C 01B9      MOVW	R22,R18
    021D 01A8      MOVW	R20,R16
    021E 9729      SBIW	R28,0x9
(0013) }
(0014) passwordItem_t readPasswordItem(int index)
(0015) {
(0016)  passwordItem_t item;
(0017)  return item;
    021F 01CE      MOVW	R24,R28
    0220 E009      LDI	R16,0x9
    0221 E010      LDI	R17,0
    0222 935A      ST	R21,-Y
    0223 934A      ST	R20,-Y
    0224 939A      ST	R25,-Y
    0225 938A      ST	R24,-Y
    0226 D1BB      RCALL	asgnblk
    0227 9629      ADIW	R28,0x9
    0228 D18B      RCALL	pop_gset2
    0229 9508      RET
(0018) }
(0019) 
(0020) int insertPasswordItem(passwordItem_t item)
(0021) {
(0022)  return 0;
_insertPasswordItem:
  item                 --> R16
    022A 2700      CLR	R16
    022B 2711      CLR	R17
    022C 9508      RET
(0023) }
(0024) //maybe change the index.
(0025) int deletePasswordItem(int index)
(0026) {
(0027)  return 0;
FILE: <library>
_deletePasswordItem:
  index                --> R16
    022D 2700      CLR	R16
    022E 2711      CLR	R17
    022F 9508      RET
__print:
    0230 D149      RCALL	push_arg4
    0231 D188      RCALL	push_gset5
    0232 972A      SBIW	R28,0xA
    0233 2400      CLR	R0
    0234 2411      CLR	R1
    0235 821F      STD	Y+7,R1
    0236 820E      STD	Y+6,R0
    0237 C12D      RJMP	0x0365
    0238 89EE      LDD	R30,Y+22
    0239 89FF      LDD	R31,Y+23
    023A 8180      LDD	R24,Z+0
    023B 3285      CPI	R24,0x25
    023C F039      BEQ	0x0244
    023D 8100      LDD	R16,Z+0
    023E 89EC      LDD	R30,Y+20
    023F 89FD      LDD	R31,Y+21
    0240 D198      RCALL	xicall
    0241 940E04D4  CALL	0x4D4
    0243 C11F      RJMP	0x0363
    0244 24EE      CLR	R14
    0245 24FF      CLR	R15
    0246 E24E      LDI	R20,0x2E
    0247 E051      LDI	R21,1
    0248 E260      LDI	R22,0x20
    0249 940E0500  CALL	0x500
    024B 2FE8      MOV	R30,R24
    024C 2FF9      MOV	R31,R25
    024D 8020      LDD	R2,Z+0
    024E 2433      CLR	R3
    024F 823D      STD	Y+5,R3
    0250 822C      STD	Y+4,R2
    0251 2D82      MOV	R24,R2
    0252 2D93      MOV	R25,R3
    0253 3588      CPI	R24,0x58
    0254 E0E0      LDI	R30,0
    0255 079E      CPC	R25,R30
    0256 F409      BNE	0x0258
    0257 C077      RJMP	0x02CF
    0258 E588      LDI	R24,0x58
    0259 1582      CP	R24,R2
    025A 0593      CPC	R25,R3
    025B F0A4      BLT	0x0270
    025C 818C      LDD	R24,Y+4
    025D 819D      LDD	R25,Y+5
    025E 3485      CPI	R24,0x45
    025F E0E0      LDI	R30,0
    0260 079E      CPC	R25,R30
    0261 F409      BNE	0x0263
    0262 C0FB      RJMP	0x035E
    0263 3485      CPI	R24,0x45
    0264 E0E0      LDI	R30,0
    0265 079E      CPC	R25,R30
    0266 F40C      BGE	0x0268
    0267 C043      RJMP	0x02AB
    0268 818C      LDD	R24,Y+4
    0269 819D      LDD	R25,Y+5
    026A 3583      CPI	R24,0x53
    026B E0E0      LDI	R30,0
    026C 079E      CPC	R25,R30
    026D F409      BNE	0x026F
    026E C0A8      RJMP	0x0317
    026F C03B      RJMP	0x02AB
    0270 818C      LDD	R24,Y+4
    0271 819D      LDD	R25,Y+5
    0272 368F      CPI	R24,0x6F
    0273 E0E0      LDI	R30,0
    0274 079E      CPC	R25,R30
    0275 F409      BNE	0x0277
    0276 C058      RJMP	0x02CF
    0277 E68F      LDI	R24,0x6F
    0278 E090      LDI	R25,0
    0279 802C      LDD	R2,Y+4
    027A 803D      LDD	R3,Y+5
    027B 1582      CP	R24,R2
    027C 0593      CPC	R25,R3
    027D F0DC      BLT	0x0299
    027E 818C      LDD	R24,Y+4
    027F 819D      LDD	R25,Y+5
    0280 3683      CPI	R24,0x63
    0281 E0E0      LDI	R30,0
    0282 079E      CPC	R25,R30
    0283 F409      BNE	0x0285
    0284 C086      RJMP	0x030B
    0285 3684      CPI	R24,0x64
    0286 E0E0      LDI	R30,0
    0287 079E      CPC	R25,R30
    0288 F409      BNE	0x028A
    0289 C02A      RJMP	0x02B4
    028A 3685      CPI	R24,0x65
    028B E0E0      LDI	R30,0
    028C 079E      CPC	R25,R30
    028D F409      BNE	0x028F
    028E C0CF      RJMP	0x035E
    028F 3686      CPI	R24,0x66
    0290 E0E0      LDI	R30,0
    0291 079E      CPC	R25,R30
    0292 F409      BNE	0x0294
    0293 C0CA      RJMP	0x035E
    0294 3689      CPI	R24,0x69
    0295 E0E0      LDI	R30,0
    0296 079E      CPC	R25,R30
    0297 F0E1      BEQ	0x02B4
    0298 C012      RJMP	0x02AB
    0299 818C      LDD	R24,Y+4
    029A 819D      LDD	R25,Y+5
    029B 3783      CPI	R24,0x73
    029C E0E0      LDI	R30,0
    029D 079E      CPC	R25,R30
    029E F409      BNE	0x02A0
    029F C098      RJMP	0x0338
    02A0 3785      CPI	R24,0x75
    02A1 E0E0      LDI	R30,0
    02A2 079E      CPC	R25,R30
    02A3 F409      BNE	0x02A5
    02A4 C02A      RJMP	0x02CF
    02A5 3788      CPI	R24,0x78
    02A6 E0E0      LDI	R30,0
    02A7 079E      CPC	R25,R30
    02A8 F409      BNE	0x02AA
    02A9 C025      RJMP	0x02CF
    02AA C000      RJMP	0x02AB
    02AB 89EE      LDD	R30,Y+22
    02AC 89FF      LDD	R31,Y+23
    02AD 8100      LDD	R16,Z+0
    02AE 89EC      LDD	R30,Y+20
    02AF 89FD      LDD	R31,Y+21
    02B0 D128      RCALL	xicall
    02B1 940E04D4  CALL	0x4D4
    02B3 C0AF      RJMP	0x0363
    02B4 940E04C2  CALL	<created procedures>
    02B6 940E0506  CALL	0x506
    02B8 2D82      MOV	R24,R2
    02B9 2D93      MOV	R25,R3
    02BA 3080      CPI	R24,0
    02BB E0E0      LDI	R30,0
    02BC 079E      CPC	R25,R30
    02BD F464      BGE	0x02CA
    02BE 2D8E      MOV	R24,R14
    02BF 2D9F      MOV	R25,R15
    02C0 6088      ORI	R24,0x8
    02C1 2EE8      MOV	R14,R24
    02C2 2EF9      MOV	R15,R25
    02C3 E26D      LDI	R22,0x2D
    02C4 2D82      MOV	R24,R2
    02C5 2D93      MOV	R25,R3
    02C6 940E0510  CALL	0x510
    02C8 8799      STD	Y+9,R25
    02C9 8788      STD	Y+8,R24
    02CA E08A      LDI	R24,0xA
    02CB 940E04E9  CALL	0x4E9
    02CD D14A      RCALL	_itoa
    02CE C039      RJMP	0x0308
    02CF 940E04C2  CALL	<created procedures>
    02D1 940E0506  CALL	0x506
    02D3 89EE      LDD	R30,Y+22
    02D4 89FF      LDD	R31,Y+23
    02D5 8180      LDD	R24,Z+0
    02D6 3785      CPI	R24,0x75
    02D7 F451      BNE	0x02E2
    02D8 E08A      LDI	R24,0xA
    02D9 E090      LDI	R25,0
    02DA 8399      STD	Y+1,R25
    02DB 8388      STD	Y+0,R24
    02DC 2D22      MOV	R18,R2
    02DD 2D33      MOV	R19,R3
    02DE 2F04      MOV	R16,R20
    02DF 2F15      MOV	R17,R21
    02E0 D177      RCALL	_utoa
    02E1 C026      RJMP	0x0308
    02E2 89EE      LDD	R30,Y+22
    02E3 89FF      LDD	R31,Y+23
    02E4 8180      LDD	R24,Z+0
    02E5 368F      CPI	R24,0x6F
    02E6 F429      BNE	0x02EC
    02E7 E088      LDI	R24,0x8
    02E8 940E04E9  CALL	0x4E9
    02EA D16D      RCALL	_utoa
    02EB C01C      RJMP	0x0308
    02EC E180      LDI	R24,0x10
    02ED 940E04E9  CALL	0x4E9
    02EF D168      RCALL	_utoa
    02F0 89EE      LDD	R30,Y+22
    02F1 89FF      LDD	R31,Y+23
    02F2 8180      LDD	R24,Z+0
    02F3 3588      CPI	R24,0x58
    02F4 F499      BNE	0x0308
    02F5 940E051A  CALL	0x51A
    02F7 C00D      RJMP	0x0305
    02F8 2DEC      MOV	R30,R12
    02F9 2DFD      MOV	R31,R13
    02FA 8100      LDD	R16,Z+0
    02FB 2711      CLR	R17
    02FC D198      RCALL	_toupper
    02FD 2DEC      MOV	R30,R12
    02FE 2DFD      MOV	R31,R13
    02FF 8300      STD	Z+0,R16
    0300 2D8C      MOV	R24,R12
    0301 2D9D      MOV	R25,R13
    0302 9601      ADIW	R24,1
    0303 2EC8      MOV	R12,R24
    0304 2ED9      MOV	R13,R25
    0305 940E051F  CALL	0x51F
    0307 F781      BNE	0x02F8
    0308 940E051A  CALL	0x51A
    030A C039      RJMP	0x0344
    030B 940E04C2  CALL	<created procedures>
    030D 8020      LDD	R2,Z+0
    030E 8031      LDD	R3,Z+1
    030F 822A      STD	Y+2,R2
    0310 2D02      MOV	R16,R2
    0311 89EC      LDD	R30,Y+20
    0312 89FD      LDD	R31,Y+21
    0313 D0C5      RCALL	xicall
    0314 940E04D4  CALL	0x4D4
    0316 C04C      RJMP	0x0363
    0317 940E04C2  CALL	<created procedures>
    0319 80A0      LDD	R10,Z+0
    031A 80B1      LDD	R11,Z+1
    031B 326D      CPI	R22,0x2D
    031C F4A9      BNE	0x0332
    031D E20D      LDI	R16,0x2D
    031E 89EC      LDD	R30,Y+20
    031F 89FD      LDD	R31,Y+21
    0320 D0B8      RCALL	xicall
    0321 940E04D4  CALL	0x4D4
    0323 C00E      RJMP	0x0332
    0324 2DEA      MOV	R30,R10
    0325 2DFB      MOV	R31,R11
    0326 95C8      LPM
    0327 2D00      MOV	R16,R0
    0328 89EC      LDD	R30,Y+20
    0329 89FD      LDD	R31,Y+21
    032A D0AE      RCALL	xicall
    032B 940E04D4  CALL	0x4D4
    032D 2D8A      MOV	R24,R10
    032E 2D9B      MOV	R25,R11
    032F 9601      ADIW	R24,1
    0330 2EA8      MOV	R10,R24
    0331 2EB9      MOV	R11,R25
    0332 2DEA      MOV	R30,R10
    0333 2DFB      MOV	R31,R11
    0334 95C8      LPM
    0335 2000      TST	R0
    0336 F769      BNE	0x0324
    0337 C02B      RJMP	0x0363
    0338 940E04C2  CALL	<created procedures>
    033A 80C0      LDD	R12,Z+0
    033B 80D1      LDD	R13,Z+1
    033C 20CC      TST	R12
    033D F431      BNE	0x0344
    033E 20DD      TST	R13
    033F F421      BNE	0x0344
    0340 ED82      LDI	R24,0xD2
    0341 E090      LDI	R25,0
    0342 2EC8      MOV	R12,R24
    0343 2ED9      MOV	R13,R25
    0344 326D      CPI	R22,0x2D
    0345 F4A1      BNE	0x035A
    0346 E20D      LDI	R16,0x2D
    0347 89EC      LDD	R30,Y+20
    0348 89FD      LDD	R31,Y+21
    0349 D08F      RCALL	xicall
    034A 940E04D4  CALL	0x4D4
    034C C00D      RJMP	0x035A
    034D 2DEC      MOV	R30,R12
    034E 2DFD      MOV	R31,R13
    034F 8100      LDD	R16,Z+0
    0350 89EC      LDD	R30,Y+20
    0351 89FD      LDD	R31,Y+21
    0352 D086      RCALL	xicall
    0353 940E04D4  CALL	0x4D4
    0355 2D8C      MOV	R24,R12
    0356 2D9D      MOV	R25,R13
    0357 9601      ADIW	R24,1
    0358 2EC8      MOV	R12,R24
    0359 2ED9      MOV	R13,R25
    035A 940E051F  CALL	0x51F
    035C F781      BNE	0x034D
    035D C005      RJMP	0x0363
    035E E68F      LDI	R24,0x6F
    035F E090      LDI	R25,0
    0360 2EC8      MOV	R12,R24
    0361 2ED9      MOV	R13,R25
    0362 CFE1      RJMP	0x0344
    0363 940E0500  CALL	0x500
    0365 89EE      LDD	R30,Y+22
    0366 89FF      LDD	R31,Y+23
    0367 8020      LDD	R2,Z+0
    0368 2022      TST	R2
    0369 F009      BEQ	0x036B
    036A CECD      RJMP	0x0238
    036B 810E      LDD	R16,Y+6
    036C 811F      LDD	R17,Y+7
    036D 962A      ADIW	R28,0xA
    036E D049      RCALL	pop_gset5
    036F 9624      ADIW	R28,4
    0370 9508      RET
_strcpy:
    0371 2FA0      MOV	R26,R16
    0372 2FB1      MOV	R27,R17
    0373 2FE2      MOV	R30,R18
    0374 2FF3      MOV	R31,R19
    0375 9001      LD	R0,Z+
    0376 920D      ST	R0,X+
    0377 2000      TST	R0
    0378 F7E1      BNE	0x0375
    0379 9508      RET
push_arg4:
    037A 933A      ST	R19,-Y
    037B 932A      ST	R18,-Y
push_arg2:
    037C 931A      ST	R17,-Y
    037D 930A      ST	R16,-Y
    037E 9508      RET
mod16s:
    037F 9468      BSET	6
    0380 92DA      ST	R13,-Y
    0381 2ED1      MOV	R13,R17
    0382 C004      RJMP	0x0387
div16s:
    0383 94E8      BCLR	6
    0384 92DA      ST	R13,-Y
    0385 2ED1      MOV	R13,R17
    0386 26D3      EOR	R13,R19
    0387 FF17      SBRS	R17,7
    0388 C002      RJMP	0x038B
    0389 940E0515  CALL	0x515
    038B FF37      SBRS	R19,7
    038C C004      RJMP	0x0391
    038D 9530      COM	R19
    038E 9520      COM	R18
    038F 5F2F      SUBI	R18,0xFF
    0390 4F3F      SBCI	R19,0xFF
    0391 D009      RCALL	xdiv16u
    0392 FED7      SBRS	R13,7
    0393 C002      RJMP	0x0396
    0394 940E0515  CALL	0x515
    0396 90D9      LD	R13,Y+
    0397 9508      RET
mod16u:
    0398 9468      BSET	6
    0399 C001      RJMP	xdiv16u
div16u:
    039A 94E8      BCLR	6
xdiv16u:
    039B 92EA      ST	R14,-Y
    039C 92FA      ST	R15,-Y
    039D 938A      ST	R24,-Y
    039E 24EE      CLR	R14
    039F 24FF      CLR	R15
    03A0 E180      LDI	R24,0x10
    03A1 0F00      LSL	R16
    03A2 1F11      ROL	R17
    03A3 1CEE      ROL	R14
    03A4 1CFF      ROL	R15
    03A5 16E2      CP	R14,R18
    03A6 06F3      CPC	R15,R19
    03A7 F018      BCS	0x03AB
    03A8 1AE2      SUB	R14,R18
    03A9 0AF3      SBC	R15,R19
    03AA 9503      INC	R16
    03AB 958A      DEC	R24
    03AC F7A1      BNE	0x03A1
    03AD F416      BRTC	0x03B0
    03AE 2D0E      MOV	R16,R14
    03AF 2D1F      MOV	R17,R15
    03B0 9189      LD	R24,Y+
    03B1 90F9      LD	R15,Y+
    03B2 90E9      LD	R14,Y+
    03B3 9508      RET
pop_gset2:
    03B4 E0E2      LDI	R30,2
    03B5 C010      RJMP	pop
pop_gset4:
    03B6 E0E8      LDI	R30,0x8
    03B7 C00E      RJMP	pop
pop_gset5:
    03B8 27EE      CLR	R30
    03B9 C00C      RJMP	pop
push_gset5:
    03BA 92FA      ST	R15,-Y
    03BB 92EA      ST	R14,-Y
push_gset4:
    03BC 92DA      ST	R13,-Y
    03BD 92CA      ST	R12,-Y
push_gset3:
    03BE 92BA      ST	R11,-Y
    03BF 92AA      ST	R10,-Y
push_gset2:
    03C0 937A      ST	R23,-Y
    03C1 936A      ST	R22,-Y
push_gset1:
    03C2 935A      ST	R21,-Y
    03C3 934A      ST	R20,-Y
    03C4 9508      RET
pop_gset1:
    03C5 E0E1      LDI	R30,1
pop:
    03C6 9149      LD	R20,Y+
    03C7 9159      LD	R21,Y+
    03C8 FDE0      SBRC	R30,0
    03C9 9508      RET
    03CA 9169      LD	R22,Y+
    03CB 9179      LD	R23,Y+
    03CC FDE1      SBRC	R30,1
    03CD 9508      RET
    03CE 90A9      LD	R10,Y+
    03CF 90B9      LD	R11,Y+
    03D0 FDE2      SBRC	R30,2
    03D1 9508      RET
    03D2 90C9      LD	R12,Y+
    03D3 90D9      LD	R13,Y+
    03D4 FDE3      SBRC	R30,3
    03D5 9508      RET
    03D6 90E9      LD	R14,Y+
    03D7 90F9      LD	R15,Y+
    03D8 9508      RET
xicall:
    03D9 920A      ST	R0,-Y
    03DA 95C8      LPM
    03DB 920A      ST	R0,-Y
    03DC 9631      ADIW	R30,1
    03DD 95C8      LPM
    03DE 2DF0      MOV	R31,R0
    03DF 91E9      LD	R30,Y+
    03E0 9009      LD	R0,Y+
    03E1 9409      IJMP
asgnblk:
    03E2 93AA      ST	R26,-Y
    03E3 93BA      ST	R27,-Y
    03E4 93EA      ST	R30,-Y
    03E5 93FA      ST	R31,-Y
    03E6 920A      ST	R0,-Y
    03E7 81AF      LDD	R26,Y+7
    03E8 85B8      LDD	R27,Y+8
    03E9 81ED      LDD	R30,Y+5
    03EA 81FE      LDD	R31,Y+6
    03EB 3000      CPI	R16,0
    03EC 0701      CPC	R16,R17
    03ED F029      BEQ	0x03F3
    03EE 9001      LD	R0,Z+
    03EF 920D      ST	R0,X+
    03F0 5001      SUBI	R16,1
    03F1 4010      SBCI	R17,0
    03F2 CFF8      RJMP	0x03EB
    03F3 9009      LD	R0,Y+
    03F4 91F9      LD	R31,Y+
    03F5 91E9      LD	R30,Y+
    03F6 91B9      LD	R27,Y+
    03F7 91A9      LD	R26,Y+
    03F8 9624      ADIW	R28,4
    03F9 9508      RET
_putchar:
    03FA DFC7      RCALL	push_gset1
    03FB 2F40      MOV	R20,R16
    03FC 90200147  LDS	R2,_textmode
    03FE 90300148  LDS	R3,_textmode+1
    0400 2022      TST	R2
    0401 F411      BNE	0x0404
    0402 2033      TST	R3
    0403 F021      BEQ	0x0408
    0404 304A      CPI	R20,0xA
    0405 F411      BNE	0x0408
    0406 E00D      LDI	R16,0xD
    0407 DFF2      RCALL	_putchar
    0408 9B5D      SBIS	0x0B,5
    0409 CFFE      RJMP	0x0408
    040A B94C      OUT	0x0C,R20
    040B 2F04      MOV	R16,R20
    040C 2711      CLR	R17
    040D DFB7      RCALL	pop_gset1
    040E 9508      RET
__va_start:
    040F 2F82      MOV	R24,R18
    0410 2F93      MOV	R25,R19
    0411 9601      ADIW	R24,1
    0412 7F8E      ANDI	R24,0xFE
    0413 0F80      ADD	R24,R16
    0414 1F91      ADC	R25,R17
    0415 2F08      MOV	R16,R24
    0416 2F19      MOV	R17,R25
    0417 9508      RET
_itoa:
    0418 DFA1      RCALL	push_gset5
    0419 2EC2      MOV	R12,R18
    041A 2ED3      MOV	R13,R19
    041B 2F40      MOV	R20,R16
    041C 2F51      MOV	R21,R17
    041D 97A2      SBIW	R28,0x22
    041E A4AC      LDD	R10,Y+44
    041F A4BD      LDD	R11,Y+45
    0420 2D8C      MOV	R24,R12
    0421 2D9D      MOV	R25,R13
    0422 3080      CPI	R24,0
    0423 E0E0      LDI	R30,0
    0424 079E      CPC	R25,R30
    0425 F434      BGE	0x042C
    0426 E061      LDI	R22,1
    0427 940E0510  CALL	0x510
    0429 2EC8      MOV	R12,R24
    042A 2ED9      MOV	R13,R25
    042B C001      RJMP	0x042D
    042C 2766      CLR	R22
    042D 2422      CLR	R2
    042E A229      STD	Y+33,R2
    042F 2F8C      MOV	R24,R28
    0430 2F9D      MOV	R25,R29
    0431 9681      ADIW	R24,0x21
    0432 2EE8      MOV	R14,R24
    0433 2EF9      MOV	R15,R25
    0434 940E04F1  CALL	0x4F1
    0436 940E050B  CALL	0x50B
    0438 DF46      RCALL	mod16s
    0439 2FE0      MOV	R30,R16
    043A 2FF1      MOV	R31,R17
    043B EE84      LDI	R24,0xE4
    043C E090      LDI	R25,0
    043D 940E04F9  CALL	0x4F9
    043F 940E050B  CALL	0x50B
    0441 DF41      RCALL	div16s
    0442 2EC0      MOV	R12,R16
    0443 2ED1      MOV	R13,R17
    0444 20CC      TST	R12
    0445 F771      BNE	0x0434
    0446 20DD      TST	R13
    0447 F761      BNE	0x0434
    0448 2366      TST	R22
    0449 F031      BEQ	0x0450
    044A 940E04F1  CALL	0x4F1
    044C E28D      LDI	R24,0x2D
    044D 2DE2      MOV	R30,R2
    044E 2DF3      MOV	R31,R3
    044F 8380      STD	Z+0,R24
    0450 2D2E      MOV	R18,R14
    0451 2D3F      MOV	R19,R15
    0452 2F04      MOV	R16,R20
    0453 2F15      MOV	R17,R21
    0454 DF1C      RCALL	_strcpy
    0455 96A2      ADIW	R28,0x22
    0456 DF61      RCALL	pop_gset5
    0457 9508      RET
_utoa:
    0458 DF63      RCALL	push_gset4
    0459 2EA2      MOV	R10,R18
    045A 2EB3      MOV	R11,R19
    045B 2EC0      MOV	R12,R16
    045C 2ED1      MOV	R13,R17
    045D 97A2      SBIW	R28,0x22
    045E A56A      LDD	R22,Y+42
    045F A57B      LDD	R23,Y+43
    0460 2422      CLR	R2
    0461 A229      STD	Y+33,R2
    0462 2F4C      MOV	R20,R28
    0463 2F5D      MOV	R21,R29
    0464 5D4F      SUBI	R20,0xDF
    0465 4F5F      SBCI	R21,0xFF
    0466 2F84      MOV	R24,R20
    0467 2F95      MOV	R25,R21
    0468 9701      SBIW	R24,1
    0469 2E28      MOV	R2,R24
    046A 2E39      MOV	R3,R25
    046B 2F48      MOV	R20,R24
    046C 2F59      MOV	R21,R25
    046D 940E0524  CALL	0x524
    046F DF28      RCALL	mod16u
    0470 2FE0      MOV	R30,R16
    0471 2FF1      MOV	R31,R17
    0472 E089      LDI	R24,0x9
    0473 E091      LDI	R25,1
    0474 940E04F9  CALL	0x4F9
    0476 940E0524  CALL	0x524
    0478 DF21      RCALL	div16u
    0479 2EA0      MOV	R10,R16
    047A 2EB1      MOV	R11,R17
    047B 20AA      TST	R10
    047C F749      BNE	0x0466
    047D 20BB      TST	R11
    047E F739      BNE	0x0466
    047F 2F24      MOV	R18,R20
    0480 2F35      MOV	R19,R21
    0481 2D0C      MOV	R16,R12
    0482 2D1D      MOV	R17,R13
    0483 DEED      RCALL	_strcpy
    0484 96A2      ADIW	R28,0x22
    0485 DF30      RCALL	pop_gset4
    0486 9508      RET
_islower:
    0487 E587      LDI	R24,0x57
    0488 E090      LDI	R25,0
    0489 2E20      MOV	R2,R16
    048A 2E31      MOV	R3,R17
    048B 0E28      ADD	R2,R24
    048C 1E39      ADC	R3,R25
    048D 2DE2      MOV	R30,R2
    048E 2DF3      MOV	R31,R3
    048F 95C8      LPM
    0490 2D00      MOV	R16,R0
    0491 2711      CLR	R17
    0492 7002      ANDI	R16,2
    0493 7010      ANDI	R17,0
    0494 9508      RET
_toupper:
    0495 DF2C      RCALL	push_gset1
    0496 2F40      MOV	R20,R16
    0497 2F51      MOV	R21,R17
    0498 2F04      MOV	R16,R20
    0499 2F15      MOV	R17,R21
    049A DFEC      RCALL	_islower
    049B 3000      CPI	R16,0
    049C 0701      CPC	R16,R17
    049D F039      BEQ	0x04A5
    049E 2F04      MOV	R16,R20
    049F 2F15      MOV	R17,R21
    04A0 5601      SUBI	R16,0x61
    04A1 4010      SBCI	R17,0
    04A2 5B0F      SUBI	R16,0xBF
    04A3 4F1F      SBCI	R17,0xFF
    04A4 C002      RJMP	0x04A7
    04A5 2F04      MOV	R16,R20
    04A6 2F15      MOV	R17,R21
    04A7 DF1D      RCALL	pop_gset1
    04A8 9508      RET
_printf:
    04A9 DED0      RCALL	push_arg4
    04AA DF17      RCALL	push_gset1
    04AB 9722      SBIW	R28,2
    04AC E022      LDI	R18,2
    04AD E030      LDI	R19,0
    04AE 2F0C      MOV	R16,R28
    04AF 2F1D      MOV	R17,R29
    04B0 5F0C      SUBI	R16,0xFC
    04B1 4F1F      SBCI	R17,0xFF
    04B2 DF5C      RCALL	__va_start
    04B3 2F40      MOV	R20,R16
    04B4 2F51      MOV	R21,R17
    04B5 8359      STD	Y+1,R21
    04B6 8348      STD	Y+0,R20
    04B7 812C      LDD	R18,Y+4
    04B8 813D      LDD	R19,Y+5
    04B9 E504      LDI	R16,0x54
    04BA E010      LDI	R17,0
    04BB DD74      RCALL	__print
    04BC 2F40      MOV	R20,R16
    04BD 2F51      MOV	R21,R17
    04BE 9622      ADIW	R28,2
    04BF DF05      RCALL	pop_gset1
    04C0 9624      ADIW	R28,4
    04C1 9508      RET
<created procedures>:
    04C2 8D88      LDD	R24,Y+24
    04C3 8D99      LDD	R25,Y+25
    04C4 9602      ADIW	R24,2
    04C5 8F99      STD	Y+25,R25
    04C6 8F88      STD	Y+24,R24
    04C7 2FE8      MOV	R30,R24
    04C8 2FF9      MOV	R31,R25
    04C9 9732      SBIW	R30,2
    04CA 9508      RET
    04CB 9230006C  STS	id_code+1,R3
    04CD 9220006B  STS	id_code,R2
    04CF 9250006E  STS	id_code+3,R5
    04D1 9240006D  STS	id_code+2,R4
    04D3 9508      RET
    04D4 818E      LDD	R24,Y+6
    04D5 819F      LDD	R25,Y+7
    04D6 9601      ADIW	R24,1
    04D7 839F      STD	Y+7,R25
    04D8 838E      STD	Y+6,R24
    04D9 9508      RET
    04DA 9040006D  LDS	R4,id_code+2
    04DC 9050006E  LDS	R5,id_code+3
    04DE 9020006B  LDS	R2,id_code
    04E0 9030006C  LDS	R3,id_code+1
    04E2 9508      RET
    04E3 B382      IN	R24,0x12
    04E4 7E8F      ANDI	R24,0xEF
    04E5 BB82      OUT	0x12,R24
    04E6 E900      LDI	R16,0x90
    04E7 E011      LDI	R17,1
    04E8 9508      RET
    04E9 E090      LDI	R25,0
    04EA 8399      STD	Y+1,R25
    04EB 8388      STD	Y+0,R24
    04EC 8528      LDD	R18,Y+8
    04ED 8539      LDD	R19,Y+9
    04EE 2F04      MOV	R16,R20
    04EF 2F15      MOV	R17,R21
    04F0 9508      RET
    04F1 2D8E      MOV	R24,R14
    04F2 2D9F      MOV	R25,R15
    04F3 9701      SBIW	R24,1
    04F4 2E28      MOV	R2,R24
    04F5 2E39      MOV	R3,R25
    04F6 2EE8      MOV	R14,R24
    04F7 2EF9      MOV	R15,R25
    04F8 9508      RET
    04F9 0FE8      ADD	R30,R24
    04FA 1FF9      ADC	R31,R25
    04FB 8040      LDD	R4,Z+0
    04FC 2DE2      MOV	R30,R2
    04FD 2DF3      MOV	R31,R3
    04FE 8240      STD	Z+0,R4
    04FF 9508      RET
    0500 898E      LDD	R24,Y+22
    0501 899F      LDD	R25,Y+23
    0502 9601      ADIW	R24,1
    0503 8B9F      STD	Y+23,R25
    0504 8B8E      STD	Y+22,R24
    0505 9508      RET
    0506 8020      LDD	R2,Z+0
    0507 8031      LDD	R3,Z+1
    0508 8639      STD	Y+9,R3
    0509 8628      STD	Y+8,R2
    050A 9508      RET
    050B 2D2A      MOV	R18,R10
    050C 2D3B      MOV	R19,R11
    050D 2D0C      MOV	R16,R12
    050E 2D1D      MOV	R17,R13
    050F 9508      RET
    0510 9580      COM	R24
    0511 9590      COM	R25
    0512 5F8F      SUBI	R24,0xFF
    0513 4F9F      SBCI	R25,0xFF
    0514 9508      RET
    0515 9510      COM	R17
    0516 9500      COM	R16
    0517 5F0F      SUBI	R16,0xFF
    0518 4F1F      SBCI	R17,0xFF
    0519 9508      RET
    051A E28E      LDI	R24,0x2E
    051B E091      LDI	R25,1
    051C 2EC8      MOV	R12,R24
    051D 2ED9      MOV	R13,R25
    051E 9508      RET
    051F 2DEC      MOV	R30,R12
    0520 2DFD      MOV	R31,R13
    0521 8020      LDD	R2,Z+0
    0522 2022      TST	R2
    0523 9508      RET
    0524 2F26      MOV	R18,R22
    0525 2F37      MOV	R19,R23
    0526 2D0A      MOV	R16,R10
    0527 2D1B      MOV	R17,R11
    0528 9508      RET
    0529 9059      LD	R5,Y+
    052A 9049      LD	R4,Y+
    052B 9039      LD	R3,Y+
    052C 9029      LD	R2,Y+
    052D 9508      RET
    052E 922A      ST	R2,-Y
    052F 923A      ST	R3,-Y
    0530 924A      ST	R4,-Y
    0531 925A      ST	R5,-Y
    0532 9508      RET
    0533 1624      CP	R2,R20
    0534 0635      CPC	R3,R21
    0535 0646      CPC	R4,R22
    0536 0657      CPC	R5,R23
    0537 9508      RET
